; Function Attrs: nounwind uwtable
define dso_local noundef i32 @EndLO(ptr noundef %0, i32 noundef %1) local_unnamed_addr #0 {
  %3 = getelementptr inbounds nuw i8, ptr %0, i64 352
  %4 = load ptr, ptr %3, align 8
  %.not = icmp eq ptr %4, null
  br i1 %.not, label %8, label %5

5:                                                ; preds = %2
  %6 = getelementptr inbounds nuw i8, ptr %0, i64 536
  %7 = load ptr, ptr %6, align 8
  tail call void %4(ptr noundef nonnull %0, ptr noundef %7, i32 noundef %1) #22
  br label %8

8:                                                ; preds = %5, %2
  ret i32 1
}